target datalayout = "e-m:e-p270:32:32-p271:32:32-p272:64:64-i64:64-i128:128-f80:128-n8:16:32:64-S128"
target triple = "x86_64-pc-linux-gnu"

%struct.gmx_structurefactors = type { i32, ptr, ptr, ptr, ptr, ptr, ptr }

@.str.1 = private unnamed_addr constant [124 x i8] c"generated/home/dtcxzyw/WorkSpace/Projects/compilers/llvm-opt-benchmark/bench/gromacs/gromacs/src/gromacs/gmxana/sfactor.cpp\00", align 1
@.str.32 = private unnamed_addr constant [2 x i8] c"a\00", align 1
@.str.33 = private unnamed_addr constant [2 x i8] c"b\00", align 1
@.str.53 = private unnamed_addr constant [2 x i8] c"C\00", align 1
@.str.54 = private unnamed_addr constant [2 x i8] c"H\00", align 1

; Function Attrs: mustprogress nounwind uwtable
define noundef i32 @_Z27gmx_structurefactors_get_sfP20gmx_structurefactorsiPfS1_S1_(ptr noundef %0, i32 noundef %1, ptr noundef %2, ptr noundef %3, ptr noundef %4) #2 {
  %6 = alloca ptr, align 8
  %7 = alloca i32, align 4
  %8 = alloca ptr, align 8
  %9 = alloca ptr, align 8
  %10 = alloca ptr, align 8
  %11 = alloca i32, align 4
  %12 = alloca i32, align 4
  %13 = alloca ptr, align 8
  store ptr %0, ptr %6, align 8
  store i32 %1, ptr %7, align 4
  store ptr %2, ptr %8, align 8
  store ptr %3, ptr %9, align 8
  store ptr %4, ptr %10, align 8
  %14 = load ptr, ptr %6, align 8
  store ptr %14, ptr %13, align 8
  store i32 0, ptr %11, align 4
  store i32 0, ptr %12, align 4
  br label %15

15:                                               ; preds = %57, %5
  %16 = load i32, ptr %12, align 4
  %17 = icmp slt i32 %16, 4
  br i1 %17, label %18, label %60

18:                                               ; preds = %15
  %19 = load ptr, ptr %13, align 8
  %20 = getelementptr inbounds %struct.gmx_structurefactors, ptr %19, i32 0, i32 3
  %21 = load ptr, ptr %20, align 8
  %22 = load i32, ptr %7, align 4
  %23 = sext i32 %22 to i64
  %24 = getelementptr inbounds ptr, ptr %21, i64 %23
  %25 = load ptr, ptr %24, align 8
  %26 = load i32, ptr %12, align 4
  %27 = sext i32 %26 to i64
  %28 = getelementptr inbounds float, ptr %25, i64 %27
  %29 = load float, ptr %28, align 4
  %30 = load ptr, ptr %8, align 8
  %31 = load i32, ptr %12, align 4
  %32 = sext i32 %31 to i64
  %33 = getelementptr inbounds float, ptr %30, i64 %32
  store float %29, ptr %33, align 4
  %34 = load ptr, ptr %13, align 8
  %35 = getelementptr inbounds %struct.gmx_structurefactors, ptr %34, i32 0, i32 4
  %36 = load ptr, ptr %35, align 8
  %37 = load i32, ptr %7, align 4
  %38 = sext i32 %37 to i64
  %39 = getelementptr inbounds ptr, ptr %36, i64 %38
  %40 = load ptr, ptr %39, align 8
  %41 = load i32, ptr %12, align 4
  %42 = sext i32 %41 to i64
  %43 = getelementptr inbounds float, ptr %40, i64 %42
  %44 = load float, ptr %43, align 4
  %45 = load ptr, ptr %9, align 8
  %46 = load i32, ptr %12, align 4
  %47 = sext i32 %46 to i64
  %48 = getelementptr inbounds float, ptr %45, i64 %47
  store float %44, ptr %48, align 4
  %49 = load ptr, ptr %13, align 8
  %50 = getelementptr inbounds %struct.gmx_structurefactors, ptr %49, i32 0, i32 5
  %51 = load ptr, ptr %50, align 8
  %52 = load i32, ptr %7, align 4
  %53 = sext i32 %52 to i64
  %54 = getelementptr inbounds float, ptr %51, i64 %53
  %55 = load float, ptr %54, align 4
  %56 = load ptr, ptr %10, align 8
  store float %55, ptr %56, align 4
  br label %57

57:                                               ; preds = %18
  %58 = load i32, ptr %12, align 4
  %59 = add nsw i32 %58, 1
  store i32 %59, ptr %12, align 4
  br label %15, !llvm.loop !24

60:                                               ; preds = %15
  %61 = load i32, ptr %11, align 4
  %62 = add nsw i32 %61, 1
  store i32 %62, ptr %11, align 4
  %63 = load i32, ptr %11, align 4
  ret i32 %63
}

; Function Attrs: mustprogress nounwind uwtable
define linkonce_odr noundef double @_ZN3gmx6squareIdEET_S1_(double noundef %0) #2 comdat {
  %2 = alloca double, align 8
  store double %0, ptr %2, align 8
  %3 = load double, ptr %2, align 8
  %4 = load double, ptr %2, align 8
  %5 = fmul double %3, %4
  ret double %5
}

; Function Attrs: mustprogress uwtable
define internal void @_ZL13gmx_snew_implIfEvPKcS1_iRPT_m(ptr noundef %0, ptr noundef %1, i32 noundef %2, ptr noundef nonnull align 8 dereferenceable(8) %3, i64 noundef %4) #0 {
  %6 = alloca ptr, align 8
  %7 = alloca ptr, align 8
  %8 = alloca i32, align 4
  %9 = alloca ptr, align 8
  %10 = alloca i64, align 8
  store ptr %0, ptr %6, align 8
  store ptr %1, ptr %7, align 8
  store i32 %2, ptr %8, align 4
  store ptr %3, ptr %9, align 8
  store i64 %4, ptr %10, align 8
  %11 = load ptr, ptr %6, align 8
  %12 = load ptr, ptr %7, align 8
  %13 = load i32, ptr %8, align 4
  %14 = load i64, ptr %10, align 8
  %15 = call noundef ptr @_Z11save_callocPKcS0_imm(ptr noundef %11, ptr noundef %12, i32 noundef %13, i64 noundef %14, i64 noundef 4)
  %16 = load ptr, ptr %9, align 8
  store ptr %15, ptr %16, align 8
  ret void
}

; Function Attrs: mustprogress uwtable
define noundef double @_Z4CMSFP20gmx_structurefactorsiidd(ptr noundef %0, i32 noundef %1, i32 noundef %2, double noundef %3, double noundef %4) #0 {
  %6 = alloca ptr, align 8
  %7 = alloca i32, align 4
  %8 = alloca i32, align 4
  %9 = alloca double, align 8
  %10 = alloca double, align 8
  %11 = alloca i32, align 4
  %12 = alloca double, align 8
  %13 = alloca double, align 8
  %14 = alloca ptr, align 8
  %15 = alloca ptr, align 8
  %16 = alloca float, align 4
  store ptr %0, ptr %6, align 8
  store i32 %1, ptr %7, align 4
  store i32 %2, ptr %8, align 4
  store double %3, ptr %9, align 8
  store double %4, ptr %10, align 8
  store double 0.000000e+00, ptr %12, align 8
  call void @_ZL13gmx_snew_implIfEvPKcS1_iRPT_m(ptr noundef @.str.32, ptr noundef @.str.1, i32 noundef 621, ptr noundef nonnull align 8 dereferenceable(8) %14, i64 noundef 4)
  call void @_ZL13gmx_snew_implIfEvPKcS1_iRPT_m(ptr noundef @.str.33, ptr noundef @.str.1, i32 noundef 622, ptr noundef nonnull align 8 dereferenceable(8) %15, i64 noundef 4)
  %17 = load i32, ptr %8, align 4
  %18 = icmp sgt i32 %17, 0
  br i1 %18, label %19, label %35

19:                                               ; preds = %5
  %20 = load ptr, ptr %6, align 8
  %21 = load ptr, ptr %6, align 8
  %22 = call noundef i32 @_Z16return_atom_typePKcP20gmx_structurefactors(ptr noundef @.str.53, ptr noundef %21)
  %23 = load double, ptr %9, align 8
  %24 = load double, ptr %10, align 8
  %25 = call noundef double @_Z4CMSFP20gmx_structurefactorsiidd(ptr noundef %20, i32 noundef %22, i32 noundef 0, double noundef %23, double noundef %24)
  %26 = load i32, ptr %8, align 4
  %27 = sitofp i32 %26 to double
  %28 = load ptr, ptr %6, align 8
  %29 = load ptr, ptr %6, align 8
  %30 = call noundef i32 @_Z16return_atom_typePKcP20gmx_structurefactors(ptr noundef @.str.54, ptr noundef %29)
  %31 = load double, ptr %9, align 8
  %32 = load double, ptr %10, align 8
  %33 = call noundef double @_Z4CMSFP20gmx_structurefactorsiidd(ptr noundef %28, i32 noundef %30, i32 noundef 0, double noundef %31, double noundef %32)
  %34 = call double @llvm.fmuladd.f64(double %27, double %33, double %25)
  store double %34, ptr %12, align 8
  br label %75

35:                                               ; preds = %5
  %36 = load double, ptr %10, align 8
  %37 = call noundef double @_ZN3gmx6squareIdEET_S1_(double noundef %36)
  %38 = load double, ptr %9, align 8
  %39 = fmul double 1.000000e+01, %38
  %40 = call noundef double @_ZN3gmx6squareIdEET_S1_(double noundef %39)
  %41 = fdiv double %37, %40
  store double %41, ptr %13, align 8
  %42 = load ptr, ptr %6, align 8
  %43 = load i32, ptr %7, align 4
  %44 = load ptr, ptr %14, align 8
  %45 = load ptr, ptr %15, align 8
  %46 = call noundef i32 @_Z27gmx_structurefactors_get_sfP20gmx_structurefactorsiPfS1_S1_(ptr noundef %42, i32 noundef %43, ptr noundef %44, ptr noundef %45, ptr noundef %16)
  %47 = load float, ptr %16, align 4
  %48 = fpext float %47 to double
  store double %48, ptr %12, align 8
  store i32 0, ptr %11, align 4
  br label %49

49:                                               ; preds = %71, %35
  %50 = load i32, ptr %11, align 4
  %51 = icmp slt i32 %50, 4
  br i1 %51, label %52, label %74

52:                                               ; preds = %49
  %53 = load ptr, ptr %14, align 8
  %54 = load i32, ptr %11, align 4
  %55 = sext i32 %54 to i64
  %56 = getelementptr inbounds float, ptr %53, i64 %55
  %57 = load float, ptr %56, align 4
  %58 = fpext float %57 to double
  %59 = load ptr, ptr %15, align 8
  %60 = load i32, ptr %11, align 4
  %61 = sext i32 %60 to i64
  %62 = getelementptr inbounds float, ptr %59, i64 %61
  %63 = load float, ptr %62, align 4
  %64 = fneg float %63
  %65 = fpext float %64 to double
  %66 = load double, ptr %13, align 8
  %67 = fmul double %65, %66
  %68 = call double @exp(double noundef %67) #9
  %69 = load double, ptr %12, align 8
  %70 = call double @llvm.fmuladd.f64(double %58, double %68, double %69)
  store double %70, ptr %12, align 8
  br label %71

71:                                               ; preds = %52
  %72 = load i32, ptr %11, align 4
  %73 = add nsw i32 %72, 1
  store i32 %73, ptr %11, align 4
  br label %49, !llvm.loop !34

74:                                               ; preds = %49
  br label %75

75:                                               ; preds = %74, %19
  %76 = load double, ptr %12, align 8
  ret double %76
}