; Function Attrs: mustprogress uwtable
define noundef double @_Z4CMSFP20gmx_structurefactorsiidd(ptr noundef %0, i32 noundef %1, i32 noundef %2, double noundef %3, double noundef %4) local_unnamed_addr #0 {
  %6 = tail call noundef ptr @_Z11save_callocPKcS0_imm(ptr noundef nonnull @.str.32, ptr noundef nonnull @.str.1, i32 noundef 621, i64 noundef 4, i64 noundef 4)
  %7 = tail call noundef ptr @_Z11save_callocPKcS0_imm(ptr noundef nonnull @.str.33, ptr noundef nonnull @.str.1, i32 noundef 622, i64 noundef 4, i64 noundef 4)
  %8 = icmp sgt i32 %2, 0
  br i1 %8, label %9, label %16

common.ret29:                                     ; preds = %42, %9
  %common.ret29.op = phi double [ %15, %9 ], [ %52, %42 ]
  ret double %common.ret29.op

9:                                                ; preds = %5
  %10 = tail call noundef i32 @_Z16return_atom_typePKcP20gmx_structurefactors(ptr noundef nonnull @.str.53, ptr noundef %0)
  %11 = tail call noundef double @_Z4CMSFP20gmx_structurefactorsiidd(ptr noundef %0, i32 noundef %10, i32 noundef 0, double noundef %3, double noundef %4)
  %12 = sitofp i32 %2 to double
  %13 = tail call noundef i32 @_Z16return_atom_typePKcP20gmx_structurefactors(ptr noundef nonnull @.str.54, ptr noundef %0)
  %14 = tail call noundef double @_Z4CMSFP20gmx_structurefactorsiidd(ptr noundef %0, i32 noundef %13, i32 noundef 0, double noundef %3, double noundef %4)
  %15 = tail call double @llvm.fmuladd.f64(double %12, double %14, double %11)
  br label %common.ret29

16:                                               ; preds = %5
  %17 = fmul double %3, 1.000000e+01
  %18 = fmul double %17, %17
  %19 = getelementptr inbounds i8, ptr %0, i64 24
  %20 = sext i32 %1 to i64
  %21 = getelementptr inbounds i8, ptr %0, i64 32
  br label %22

22:                                               ; preds = %22, %16
  %indvars.iv.i = phi i64 [ 0, %16 ], [ %indvars.iv.next.i, %22 ]
  %23 = load ptr, ptr %19, align 8
  %24 = getelementptr inbounds ptr, ptr %23, i64 %20
  %25 = load ptr, ptr %24, align 8
  %26 = getelementptr inbounds float, ptr %25, i64 %indvars.iv.i
  %27 = load float, ptr %26, align 4
  %28 = getelementptr inbounds float, ptr %6, i64 %indvars.iv.i
  store float %27, ptr %28, align 4
  %29 = load ptr, ptr %21, align 8
  %30 = getelementptr inbounds ptr, ptr %29, i64 %20
  %31 = load ptr, ptr %30, align 8
  %32 = getelementptr inbounds float, ptr %31, i64 %indvars.iv.i
  %33 = load float, ptr %32, align 4
  %34 = getelementptr inbounds float, ptr %7, i64 %indvars.iv.i
  store float %33, ptr %34, align 4
  %indvars.iv.next.i = add nuw nsw i64 %indvars.iv.i, 1
  %exitcond.not.i = icmp eq i64 %indvars.iv.next.i, 4
  br i1 %exitcond.not.i, label %_Z27gmx_structurefactors_get_sfP20gmx_structurefactorsiPfS1_S1_.exit, label %22, !llvm.loop !24

_Z27gmx_structurefactors_get_sfP20gmx_structurefactorsiPfS1_S1_.exit: ; preds = %22
  %35 = fmul double %4, %4
  %36 = fdiv double %35, %18
  %37 = getelementptr inbounds i8, ptr %0, i64 40
  %38 = load ptr, ptr %37, align 8
  %39 = getelementptr inbounds float, ptr %38, i64 %20
  %40 = load float, ptr %39, align 4
  %41 = fpext float %40 to double
  br label %42

42:                                               ; preds = %_Z27gmx_structurefactors_get_sfP20gmx_structurefactorsiPfS1_S1_.exit, %42
  %indvars.iv = phi i64 [ 0, %_Z27gmx_structurefactors_get_sfP20gmx_structurefactorsiPfS1_S1_.exit ], [ %indvars.iv.next, %42 ]
  %.02026 = phi double [ %41, %_Z27gmx_structurefactors_get_sfP20gmx_structurefactorsiPfS1_S1_.exit ], [ %52, %42 ]
  %43 = getelementptr inbounds float, ptr %6, i64 %indvars.iv
  %44 = load float, ptr %43, align 4
  %45 = fpext float %44 to double
  %46 = getelementptr inbounds float, ptr %7, i64 %indvars.iv
  %47 = load float, ptr %46, align 4
  %48 = fneg float %47
  %49 = fpext float %48 to double
  %50 = fmul double %36, %49
  %51 = tail call double @exp(double noundef %50) #15
  %52 = tail call double @llvm.fmuladd.f64(double %45, double %51, double %.02026)
  %indvars.iv.next = add nuw nsw i64 %indvars.iv, 1
  %exitcond.not = icmp eq i64 %indvars.iv.next, 4
  br i1 %exitcond.not, label %common.ret29, label %42, !llvm.loop !35
}